EXPORTS
    ClockSourceName @1
    GetMicroSeconds @2
    InitTime @3
    JackSleep @4
    SetClockSource @5
    _ZN4Jack10JackShmMemC1Ev @6
    _ZN4Jack10JackShmMemC2Ev @7
    _ZN4Jack10JackShmMemD1Ev @8
    _ZN4Jack10JackShmMemD2Ev @9
    _ZN4Jack10JackShmMemdlEPv @10
    _ZN4Jack10JackShmMemdlEPvj @11
    _ZN4Jack10JackShmMemnwEj @12
    _ZN4Jack10JackShmMemnwEjPv @13
    _ZN4Jack10ThreadExitEv @14
    _ZN4Jack13JackExceptionD0Ev @15
    _ZN4Jack13JackExceptionD1Ev @16
    _ZN4Jack13JackWinThread11GetThreadIDEv @17
    _ZN4Jack13JackWinThread12DropRealTimeEv @18
    _ZN4Jack13JackWinThread13ThreadHandlerEPv@4 @19
    _ZN4Jack13JackWinThread15AcquireRealTimeEi @20
    _ZN4Jack13JackWinThread15AcquireRealTimeEv @21
    _ZN4Jack13JackWinThread15DropRealTimeImpEPv @22
    _ZN4Jack13JackWinThread16DropSelfRealTimeEv @23
    _ZN4Jack13JackWinThread18AcquireRealTimeImpEPvi @24
    _ZN4Jack13JackWinThread19AcquireSelfRealTimeEi @25
    _ZN4Jack13JackWinThread19AcquireSelfRealTimeEv @26
    _ZN4Jack13JackWinThread4KillEv @27
    _ZN4Jack13JackWinThread4StopEv @28
    _ZN4Jack13JackWinThread5StartEv @29
    _ZN4Jack13JackWinThread7KillImpEPv @30
    _ZN4Jack13JackWinThread7StopImpEPv @31
    _ZN4Jack13JackWinThread8StartImpEPPviiPFmS1_ES1_ @32
    _ZN4Jack13JackWinThread9StartSyncEv @33
    _ZN4Jack13JackWinThread9TerminateEv @34
    _ZN4Jack13JackWinThreadC1EPNS_21JackRunnableInterfaceE @35
    _ZN4Jack13JackWinThreadC2EPNS_21JackRunnableInterfaceE @36
    _ZN4Jack13JackWinThreadD1Ev @37
    _ZN4Jack13JackWinThreadD2Ev @38
    _ZN4Jack13LockAllMemoryEv @39
    _ZN4Jack13LockMemoryImpEPvj @40
    _ZN4Jack14JackFrameTimer12IncFrameTimeEjyy @41
    _ZN4Jack14JackFrameTimer13InitFrameTimeEv @42
    _ZN4Jack14JackFrameTimer13ReadFrameTimeEPNS_9JackTimerE @43
    _ZN4Jack14JackFrameTimer14ResetFrameTimeEjyy @44
    _ZN4Jack14JackFrameTimer15IncFrameTimeAuxEjyy @45
    _ZN4Jack14JackFrameTimer16InitFrameTimeAuxEyy @46
    _ZN4Jack14JackMidiBuffer12ReserveEventEji @47
    _ZN4Jack14JackMidiBuffer5ResetEj @48
    _ZN4Jack15GetGraphManagerEv @49
    _ZN4Jack15GetSynchroTableEv @50
    _ZN4Jack15UnlockAllMemoryEv @51
    _ZN4Jack15UnlockMemoryImpEPvj @52
    _ZN4Jack16GetEngineControlEv @53
    _ZN4Jack16JackGraphManager10AssertPortEj @54
    _ZN4Jack16JackGraphManager10CheckPortsEjj @55
    _ZN4Jack16JackGraphManager10DeactivateEi @56
    _ZN4Jack16JackGraphManager10DisconnectEjj @57
    _ZN4Jack16JackGraphManager10InitRefNumEi @58
    _ZN4Jack16JackGraphManager11GetPortsAuxEPPKcS2_S2_m @59
    _ZN4Jack16JackGraphManager11GetTwoPortsEPKcS2_PjS3_ @60
    _ZN4Jack16JackGraphManager11IsConnectedEjj @61
    _ZN4Jack16JackGraphManager11ReleasePortEij @62
    _ZN4Jack16JackGraphManager12ActivatePortEj @63
    _ZN4Jack16JackGraphManager12AllocatePortEiPKcS2_13JackPortFlagsj @64
    _ZN4Jack16JackGraphManager12ResumeRefNumEPNS_17JackClientControlEPNS_16JackWinSemaphoreE @65
    _ZN4Jack16JackGraphManager12RunNextGraphEv @66
    _ZN4Jack16JackGraphManager13DirectConnectEii @67
    _ZN4Jack16JackGraphManager13DisconnectAllEj @68
    _ZN4Jack16JackGraphManager13GetInputPortsEiPt @69
    _ZN4Jack16JackGraphManager13SetBufferSizeEj @70
    _ZN4Jack16JackGraphManager13SuspendRefNumEPNS_17JackClientControlEPNS_16JackWinSemaphoreEl @71
    _ZN4Jack16JackGraphManager14DeactivatePortEj @72
    _ZN4Jack16JackGraphManager14GetConnectionsEj @73
    _ZN4Jack16JackGraphManager14GetConnectionsEjPt @74
    _ZN4Jack16JackGraphManager14GetInputRefNumEj @75
    _ZN4Jack16JackGraphManager14GetOutputPortsEiPt @76
    _ZN4Jack16JackGraphManager14RemoveAllPortsEi @77
    _ZN4Jack16JackGraphManager14RequestMonitorEjb @78
    _ZN4Jack16JackGraphManager15AllocatePortAuxEiPKcS2_13JackPortFlags @79
    _ZN4Jack16JackGraphManager15GetOutputRefNumEj @80
    _ZN4Jack16JackGraphManager15IsFinishedGraphEv @81
    _ZN4Jack16JackGraphManager15RunCurrentGraphEv @82
    _ZN4Jack16JackGraphManager16DirectDisconnectEii @83
    _ZN4Jack16JackGraphManager17GetConnectionsAuxEPNS_21JackConnectionManagerEPPKcj @84
    _ZN4Jack16JackGraphManager18DisconnectAllInputEj @85
    _ZN4Jack16JackGraphManager18DisconnectAllPortsEi @86
    _ZN4Jack16JackGraphManager18IsDirectConnectionEii @87
    _ZN4Jack16JackGraphManager19ComputeTotalLatencyEj @88
    _ZN4Jack16JackGraphManager19DisconnectAllOutputEj @89
    _ZN4Jack16JackGraphManager21ComputeTotalLatenciesEv @90
    _ZN4Jack16JackGraphManager22ComputeTotalLatencyAuxEjjPNS_21JackConnectionManagerEi @91
    _ZN4Jack16JackGraphManager4SaveEPNS_21JackConnectionManagerE @92
    _ZN4Jack16JackGraphManager7ConnectEjj @93
    _ZN4Jack16JackGraphManager7DestroyEPS0_ @94
    _ZN4Jack16JackGraphManager7GetPortEPKc @95
    _ZN4Jack16JackGraphManager7GetPortEj @96
    _ZN4Jack16JackGraphManager7RestoreEPNS_21JackConnectionManagerE @97
    _ZN4Jack16JackGraphManager8ActivateEi @98
    _ZN4Jack16JackGraphManager8AllocateEi @99
    _ZN4Jack16JackGraphManager8GetPortsEPKcS2_m @100
    _ZN4Jack16JackGraphManager9GetBufferEj @101
    _ZN4Jack16JackGraphManager9GetBufferEjj @102
    _ZN4Jack16JackGraphManagerC1Ei @103
    _ZN4Jack16JackGraphManagerC2Ei @104
    _ZN4Jack16JackNetExceptionD0Ev @105
    _ZN4Jack17InitLockMemoryImpEPvj @106
    _ZN4Jack17JackEngineControl10NotifyXRunEyf @107
    _ZN4Jack17JackEngineControl11CalcCPULoadEPPNS_19JackClientInterfaceEPNS_16JackGraphManagerEyy @108
    _ZN4Jack17JackEngineControl17ResetRollingUsecsEv @109
    _ZN4Jack19JackClientInterfaceD0Ev @110
    _ZN4Jack19JackClientInterfaceD1Ev @111
    _ZN4Jack19JackTransportEngine10CycleBeginEjy @112
    _ZN4Jack19JackTransportEngine11SyncTimeoutEjj @113
    _ZN4Jack19JackTransportEngine12CopyPositionEP15jack_position_tS2_ @114
    _ZN4Jack19JackTransportEngine13RequestNewPosEP15jack_position_t @115
    _ZN4Jack19JackTransportEngine13ResetTimebaseEi @116
    _ZN4Jack19JackTransportEngine14ReadCurrentPosEP15jack_position_t @117
    _ZN4Jack19JackTransportEngine15CheckAllRollingEPPNS_19JackClientInterfaceE @118
    _ZN4Jack19JackTransportEngine15GetCurrentFrameEv @119
    _ZN4Jack19JackTransportEngine15MakeAllLocatingEPPNS_19JackClientInterfaceE @120
    _ZN4Jack19JackTransportEngine15MakeAllStoppingEPPNS_19JackClientInterfaceE @121
    _ZN4Jack19JackTransportEngine17SetTimebaseMasterEib @122
    _ZN4Jack19JackTransportEngine23MakeAllStartingLocatingEPPNS_19JackClientInterfaceE @123
    _ZN4Jack19JackTransportEngine5QueryEP15jack_position_t @124
    _ZN4Jack19JackTransportEngine8CycleEndEPPNS_19JackClientInterfaceEjj @125
    _ZN4Jack19JackTransportEngineC1Ev @126
    _ZN4Jack19JackTransportEngineC2Ev @127
    _ZN4Jack21JackConnectionManager10DisconnectEjj @128
    _ZN4Jack21JackConnectionManager10InitRefNumEi @129
    _ZN4Jack21JackConnectionManager10ResetGraphEPNS_16JackClientTimingE @130
    _ZN4Jack21JackConnectionManager12AddInputPortEij @131
    _ZN4Jack21JackConnectionManager12ResumeRefNumEPNS_17JackClientControlEPNS_16JackWinSemaphoreEPNS_16JackClientTimingE @132
    _ZN4Jack21JackConnectionManager13AddOutputPortEij @133
    _ZN4Jack21JackConnectionManager13DirectConnectEii @134
    _ZN4Jack21JackConnectionManager13GetInputPortsEi @135
    _ZN4Jack21JackConnectionManager13SuspendRefNumEPNS_17JackClientControlEPNS_16JackWinSemaphoreEPNS_16JackClientTimingEl @136
    _ZN4Jack21JackConnectionManager14GetOutputPortsEi @137
    _ZN4Jack21JackConnectionManager15RemoveInputPortEij @138
    _ZN4Jack21JackConnectionManager16DirectDisconnectEii @139
    _ZN4Jack21JackConnectionManager16RemoveOutputPortEij @140
    _ZN4Jack21JackConnectionManager19DecDirectConnectionEjj @141
    _ZN4Jack21JackConnectionManager19IncDirectConnectionEjj @142
    _ZN4Jack21JackConnectionManager21DecFeedbackConnectionEjj @143
    _ZN4Jack21JackConnectionManager21IncFeedbackConnectionEjj @144
    _ZN4Jack21JackConnectionManager7ConnectEjj @145
    _ZN4Jack21JackConnectionManagerC1Ev @146
    _ZN4Jack21JackConnectionManagerC2Ev @147
    _ZN4Jack21JackConnectionManagerD1Ev @148
    _ZN4Jack21JackConnectionManagerD2Ev @149
    _ZN4Jack8JackPort10GetAliasesEPKPc @150
    _ZN4Jack8JackPort10MixBuffersEPPvij @151
    _ZN4Jack8JackPort10NameEqualsEPKc @152
    _ZN4Jack8JackPort10SetLatencyEj @153
    _ZN4Jack8JackPort10UnsetAliasEPKc @154
    _ZN4Jack8JackPort11ClearBufferEj @155
    _ZN4Jack8JackPort13EnsureMonitorEb @156
    _ZN4Jack8JackPort14RequestMonitorEb @157
    _ZN4Jack8JackPort3TieEj @158
    _ZN4Jack8JackPort5UnTieEv @159
    _ZN4Jack8JackPort7ReleaseEv @160
    _ZN4Jack8JackPort7SetNameEPKc @161
    _ZN4Jack8JackPort8AllocateEiPKcS2_13JackPortFlags @162
    _ZN4Jack8JackPort8SetAliasEPKc @163
    _ZN4Jack8JackPortC1Ev @164
    _ZN4Jack8JackPortC2Ev @165
    _ZN4Jack9JackTimer11Frames2TimeEjj @166
    _ZN4Jack9JackTimer11Time2FramesEyj @167
    _ZN4Jack9JackTimer21FramesSinceCycleStartEyj @168
    _ZN4Jack9JackTimerC1Ev @169
    _ZN4Jack9JackTimerC2Ev @170
    _ZN4Jack9JackTools10KillServerEv @171
    _ZN4Jack9JackTools11RewriteNameEPKcPc @172
    _ZN4Jack9JackTools12CleanupFilesEPKc @173
    _ZN4Jack9JackTools17DefaultServerNameEv @174
    _ZN4Jack9JackTools21ThrowJackNetExceptionEv @175
    _ZN4Jack9JackTools6GetPIDEv @176
    _ZN4Jack9JackTools6GetUIDEv @177
    _ZN4Jack9JackTools7UserDirEv @178
    _ZN4Jack9JackTools9GetTmpdirEv @179
    _ZN4Jack9JackTools9ServerDirEPKcPc @180
    _ZNK4Jack14JackMidiBuffer12MaxEventSizeEv @181
    _ZNK4Jack21JackConnectionManager10IsLoopPathEjj @182
    _ZNK4Jack21JackConnectionManager11IsConnectedEjj @183
    _ZNK4Jack21JackConnectionManager13IsLoopPathAuxEii @184
    _ZNK4Jack21JackConnectionManager14GetConnectionsEj @185
    _ZNK4Jack21JackConnectionManager14GetInputRefNumEj @186
    _ZNK4Jack21JackConnectionManager15GetOutputRefNumEj @187
    _ZNK4Jack21JackConnectionManager18IsDirectConnectionEii @188
    _ZNK4Jack21JackConnectionManager20IsFeedbackConnectionEjj @189
    _ZNK4Jack8JackPort10GetLatencyEv @190
    _ZNK4Jack8JackPort12GetShortNameEv @191
    _ZNK4Jack8JackPort15GetTotalLatencyEv @192
    _ZNK4Jack8JackPort7GetNameEv @193
    _ZNK4Jack8JackPort7GetTypeEv @194
    _ZNK4Jack8JackPort8GetFlagsEv @195
    _ZNK4Jack8JackPort9GetRefNumEv @196
    _ZTVN4Jack13JackExceptionE @197 DATA
    _ZTVN4Jack16JackNetExceptionE @198 DATA
    _ZTVN4Jack19JackClientInterfaceE @199 DATA
    default_jack_error_callback @200
    default_jack_info_callback @201
    jack_acquire_real_time_scheduling @202
    jack_activate @203
    jack_client_close @204
    jack_client_create_thread @205
    jack_client_kill_thread @206
    jack_client_max_real_time_priority @207
    jack_client_name_size @208
    jack_client_new @209
    jack_client_open @210
    jack_client_real_time_priority @211
    jack_client_stop_thread @212
    jack_client_thread_id @213
    jack_connect @214
    jack_cpu_load @215
    jack_cycle_signal @216
    jack_cycle_wait @217
    jack_deactivate @218
    jack_disconnect @219
    jack_drop_real_time_scheduling @220
    jack_engine_takeover_timebase @221
    jack_error @222
    jack_error_callback @223 DATA
    jack_frame_time @224
    jack_frames_since_cycle_start @225
    jack_frames_to_time @226
    jack_free @227
    jack_get_buffer_size @228
    jack_get_client_name @229
    jack_get_client_pid @230
    jack_get_current_transport_frame @231
    jack_get_internal_client_name @232
    jack_get_max_delayed_usecs @233
    jack_get_ports @234
    jack_get_sample_rate @235
    jack_get_time @236
    jack_get_transport_info @237
    jack_get_version @238
    jack_get_version_string @239
    jack_get_xrun_delayed_usecs @240
    jack_info @241
    jack_info_callback @242 DATA
    jack_internal_client_close @243
    jack_internal_client_handle @244
    jack_internal_client_load @245
    jack_internal_client_load_aux @246
    jack_internal_client_new @247
    jack_internal_client_unload @248
    jack_is_realtime @249
    jack_last_frame_time @250
    jack_log @251
    jack_midi_clear_buffer @252
    jack_midi_event_get @253
    jack_midi_event_reserve @254
    jack_midi_event_write @255
    jack_midi_get_event_count @256
    jack_midi_get_lost_event_count @257
    jack_midi_max_event_size @258
    jack_on_info_shutdown @259
    jack_on_shutdown @260
    jack_port_by_id @261
    jack_port_by_name @262
    jack_port_connected @263
    jack_port_connected_to @264
    jack_port_disconnect @265
    jack_port_ensure_monitor @266
    jack_port_flags @267
    jack_port_get_aliases @268
    jack_port_get_all_connections @269
    jack_port_get_buffer @270
    jack_port_get_connections @271
    jack_port_get_latency @272
    jack_port_get_total_latency @273
    jack_port_is_mine @274
    jack_port_monitoring_input @275
    jack_port_name @276
    jack_port_name_size @277
    jack_port_register @278
    jack_port_request_monitor @279
    jack_port_request_monitor_by_name @280
    jack_port_set_alias @281
    jack_port_set_latency @282
    jack_port_set_name @283
    jack_port_short_name @284
    jack_port_tie @285
    jack_port_type @286
    jack_port_type_id @287
    jack_port_type_size @288
    jack_port_unregister @289
    jack_port_unset_alias @290
    jack_port_untie @291
    jack_recompute_total_latencies @292
    jack_recompute_total_latency @293
    jack_release_timebase @294
    jack_reset_max_delayed_usecs @295
    jack_set_buffer_size @296
    jack_set_buffer_size_callback @297
    jack_set_client_registration_callback @298
    jack_set_error_function @299
    jack_set_freewheel @300
    jack_set_freewheel_callback @301
    jack_set_graph_order_callback @302
    jack_set_info_function @303
    jack_set_port_connect_callback @304
    jack_set_port_registration_callback @305
    jack_set_port_rename_callback @306
    jack_set_process_callback @307
    jack_set_process_thread @308
    jack_set_sample_rate_callback @309
    jack_set_sync_callback @310
    jack_set_sync_timeout @311
    jack_set_thread_init_callback @312
    jack_set_timebase_callback @313
    jack_set_transport_info @314
    jack_set_xrun_callback @315
    jack_thread_wait @316
    jack_time_to_frames @317
    jack_transport_locate @318
    jack_transport_query @319
    jack_transport_reposition @320
    jack_transport_start @321
    jack_transport_stop @322
    set_threaded_log_function @323
    silent_jack_error_callback @324
    silent_jack_info_callback @325
